target datalayout = "e-m:e-p270:32:32-p271:32:32-p272:64:64-i64:64-i128:128-f80:128-n8:16:32:64-S128"
target triple = "x86_64-pc-linux-gnu"

%struct._object = type { %union.anon, ptr }
%union.anon = type { i64 }
%struct._typeobject = type { %struct.PyVarObject, ptr, i64, i64, ptr, i64, ptr, ptr, ptr, ptr, ptr, ptr, ptr, ptr, ptr, ptr, ptr, ptr, ptr, i64, ptr, ptr, ptr, ptr, i64, ptr, ptr, ptr, ptr, ptr, ptr, ptr, ptr, ptr, i64, ptr, ptr, ptr, ptr, ptr, ptr, ptr, ptr, ptr, ptr, ptr, i32, ptr, ptr, i8, i16 }
%struct.PyVarObject = type { %struct._object, i64 }

@.str.11 = private unnamed_addr constant [24 x i8] c"bind_textdomain_codeset\00", align 1
@_Py_NoneStruct = external global %struct._object, align 8
@PyExc_ValueError = external global ptr, align 8
@.str.14 = private unnamed_addr constant [24 x i8] c"embedded null character\00", align 1
@.str.15 = private unnamed_addr constant [11 x i8] c"argument 2\00", align 1
@.str.16 = private unnamed_addr constant [12 x i8] c"str or None\00", align 1
@.str.38 = private unnamed_addr constant [11 x i8] c"argument 1\00", align 1
@.str.39 = private unnamed_addr constant [4 x i8] c"str\00", align 1

; Function Attrs: nounwind uwtable
define internal ptr @_locale_bind_textdomain_codeset_impl(ptr noundef %0, ptr noundef %1, ptr noundef %2) #0 {
  %4 = alloca ptr, align 8
  %5 = alloca ptr, align 8
  %6 = alloca ptr, align 8
  %7 = alloca ptr, align 8
  store ptr %0, ptr %5, align 8, !tbaa !4
  store ptr %1, ptr %6, align 8, !tbaa !20
  store ptr %2, ptr %7, align 8, !tbaa !20
  %8 = load ptr, ptr %6, align 8, !tbaa !20
  %9 = load ptr, ptr %7, align 8, !tbaa !20
  %10 = call ptr @bind_textdomain_codeset(ptr noundef %8, ptr noundef %9) #9
  store ptr %10, ptr %7, align 8, !tbaa !20
  %11 = load ptr, ptr %7, align 8, !tbaa !20
  %12 = icmp ne ptr %11, null
  br i1 %12, label %13, label %16

13:                                               ; preds = %3
  %14 = load ptr, ptr %7, align 8, !tbaa !20
  %15 = call ptr @PyUnicode_DecodeLocale(ptr noundef %14, ptr noundef null)
  store ptr %15, ptr %4, align 8
  br label %17

16:                                               ; preds = %3
  store ptr @_Py_NoneStruct, ptr %4, align 8
  br label %17

17:                                               ; preds = %16, %13
  %18 = load ptr, ptr %4, align 8
  ret ptr %18
}

; Function Attrs: inlinehint nounwind uwtable
define internal i32 @PyType_HasFeature(ptr noundef %0, i64 noundef %1) #3 {
  %3 = alloca ptr, align 8
  %4 = alloca i64, align 8
  %5 = alloca i64, align 8
  store ptr %0, ptr %3, align 8, !tbaa !22
  store i64 %1, ptr %4, align 8, !tbaa !18
  call void @llvm.lifetime.start.p0(i64 8, ptr %5) #9
  %6 = load ptr, ptr %3, align 8, !tbaa !22
  %7 = getelementptr inbounds nuw %struct._typeobject, ptr %6, i32 0, i32 19
  %8 = load i64, ptr %7, align 8, !tbaa !24
  store i64 %8, ptr %5, align 8, !tbaa !18
  %9 = load i64, ptr %5, align 8, !tbaa !18
  %10 = load i64, ptr %4, align 8, !tbaa !18
  %11 = and i64 %9, %10
  %12 = icmp ne i64 %11, 0
  %13 = zext i1 %12 to i32
  call void @llvm.lifetime.end.p0(i64 8, ptr %5) #9
  ret i32 %13
}

; Function Attrs: inlinehint nounwind uwtable
define internal ptr @_Py_TYPE(ptr noundef %0) #3 {
  %2 = alloca ptr, align 8
  store ptr %0, ptr %2, align 8, !tbaa !4
  %3 = load ptr, ptr %2, align 8, !tbaa !4
  %4 = getelementptr inbounds nuw %struct._object, ptr %3, i32 0, i32 1
  %5 = load ptr, ptr %4, align 8, !tbaa !32
  ret ptr %5
}

; Function Attrs: nounwind uwtable
define internal ptr @_locale_bind_textdomain_codeset(ptr noundef %0, ptr noundef %1, i64 noundef %2) #0 {
  %4 = alloca ptr, align 8
  %5 = alloca ptr, align 8
  %6 = alloca ptr, align 8
  %7 = alloca i64, align 8
  %8 = alloca ptr, align 8
  %9 = alloca ptr, align 8
  %10 = alloca ptr, align 8
  %11 = alloca i64, align 8
  %12 = alloca i64, align 8
  %13 = alloca i32, align 4
  store ptr %0, ptr %5, align 8, !tbaa !4
  store ptr %1, ptr %6, align 8, !tbaa !16
  store i64 %2, ptr %7, align 8, !tbaa !18
  call void @llvm.lifetime.start.p0(i64 8, ptr %8) #9
  store ptr null, ptr %8, align 8, !tbaa !4
  call void @llvm.lifetime.start.p0(i64 8, ptr %9) #9
  call void @llvm.lifetime.start.p0(i64 8, ptr %10) #9
  %14 = load i64, ptr %7, align 8, !tbaa !18
  %15 = icmp sle i64 2, %14
  br i1 %15, label %16, label %19

16:                                               ; preds = %3
  %17 = load i64, ptr %7, align 8, !tbaa !18
  %18 = icmp sle i64 %17, 2
  br i1 %18, label %24, label %19

19:                                               ; preds = %16, %3
  %20 = load i64, ptr %7, align 8, !tbaa !18
  %21 = call i32 @_PyArg_CheckPositional(ptr noundef @.str.11, i64 noundef %20, i64 noundef 2, i64 noundef 2)
  %22 = icmp ne i32 %21, 0
  br i1 %22, label %24, label %23

23:                                               ; preds = %19
  br label %92

24:                                               ; preds = %19, %16
  %25 = load ptr, ptr %6, align 8, !tbaa !16
  %26 = getelementptr ptr, ptr %25, i64 0
  %27 = load ptr, ptr %26, align 8, !tbaa !4
  %28 = call ptr @_Py_TYPE(ptr noundef %27)
  %29 = call i32 @PyType_HasFeature(ptr noundef %28, i64 noundef 268435456)
  %30 = icmp ne i32 %29, 0
  br i1 %30, label %35, label %31

31:                                               ; preds = %24
  %32 = load ptr, ptr %6, align 8, !tbaa !16
  %33 = getelementptr ptr, ptr %32, i64 0
  %34 = load ptr, ptr %33, align 8, !tbaa !4
  call void @_PyArg_BadArgument(ptr noundef @.str.11, ptr noundef @.str.38, ptr noundef @.str.39, ptr noundef %34)
  br label %92

35:                                               ; preds = %24
  %36 = load ptr, ptr %6, align 8, !tbaa !16
  %37 = getelementptr ptr, ptr %36, i64 0
  %38 = load ptr, ptr %37, align 8, !tbaa !4
  %39 = call ptr @PyUnicode_AsUTF8AndSize(ptr noundef %38, ptr noundef %11)
  store ptr %39, ptr %9, align 8, !tbaa !20
  %40 = load ptr, ptr %9, align 8, !tbaa !20
  %41 = icmp eq ptr %40, null
  br i1 %41, label %42, label %43

42:                                               ; preds = %35
  br label %92

43:                                               ; preds = %35
  %44 = load ptr, ptr %9, align 8, !tbaa !20
  %45 = call i64 @strlen(ptr noundef %44) #10
  %46 = load i64, ptr %11, align 8, !tbaa !18
  %47 = icmp ne i64 %45, %46
  br i1 %47, label %48, label %50

48:                                               ; preds = %43
  %49 = load ptr, ptr @PyExc_ValueError, align 8, !tbaa !4
  call void @PyErr_SetString(ptr noundef %49, ptr noundef @.str.14)
  br label %92

50:                                               ; preds = %43
  %51 = load ptr, ptr %6, align 8, !tbaa !16
  %52 = getelementptr ptr, ptr %51, i64 1
  %53 = load ptr, ptr %52, align 8, !tbaa !4
  %54 = icmp eq ptr %53, @_Py_NoneStruct
  br i1 %54, label %55, label %56

55:                                               ; preds = %50
  store ptr null, ptr %10, align 8, !tbaa !20
  br label %87

56:                                               ; preds = %50
  %57 = load ptr, ptr %6, align 8, !tbaa !16
  %58 = getelementptr ptr, ptr %57, i64 1
  %59 = load ptr, ptr %58, align 8, !tbaa !4
  %60 = call ptr @_Py_TYPE(ptr noundef %59)
  %61 = call i32 @PyType_HasFeature(ptr noundef %60, i64 noundef 268435456)
  %62 = icmp ne i32 %61, 0
  br i1 %62, label %63, label %82

63:                                               ; preds = %56
  call void @llvm.lifetime.start.p0(i64 8, ptr %12) #9
  %64 = load ptr, ptr %6, align 8, !tbaa !16
  %65 = getelementptr ptr, ptr %64, i64 1
  %66 = load ptr, ptr %65, align 8, !tbaa !4
  %67 = call ptr @PyUnicode_AsUTF8AndSize(ptr noundef %66, ptr noundef %12)
  store ptr %67, ptr %10, align 8, !tbaa !20
  %68 = load ptr, ptr %10, align 8, !tbaa !20
  %69 = icmp eq ptr %68, null
  br i1 %69, label %70, label %71

70:                                               ; preds = %63
  store i32 2, ptr %13, align 4
  br label %79

71:                                               ; preds = %63
  %72 = load ptr, ptr %10, align 8, !tbaa !20
  %73 = call i64 @strlen(ptr noundef %72) #10
  %74 = load i64, ptr %12, align 8, !tbaa !18
  %75 = icmp ne i64 %73, %74
  br i1 %75, label %76, label %78

76:                                               ; preds = %71
  %77 = load ptr, ptr @PyExc_ValueError, align 8, !tbaa !4
  call void @PyErr_SetString(ptr noundef %77, ptr noundef @.str.14)
  store i32 2, ptr %13, align 4
  br label %79

78:                                               ; preds = %71
  store i32 0, ptr %13, align 4
  br label %79

79:                                               ; preds = %76, %70, %78
  call void @llvm.lifetime.end.p0(i64 8, ptr %12) #9
  %80 = load i32, ptr %13, align 4
  switch i32 %80, label %94 [
    i32 0, label %81
    i32 2, label %92
  ]

81:                                               ; preds = %79
  br label %86

82:                                               ; preds = %56
  %83 = load ptr, ptr %6, align 8, !tbaa !16
  %84 = getelementptr ptr, ptr %83, i64 1
  %85 = load ptr, ptr %84, align 8, !tbaa !4
  call void @_PyArg_BadArgument(ptr noundef @.str.11, ptr noundef @.str.15, ptr noundef @.str.16, ptr noundef %85)
  br label %92

86:                                               ; preds = %81
  br label %87

87:                                               ; preds = %86, %55
  %88 = load ptr, ptr %5, align 8, !tbaa !4
  %89 = load ptr, ptr %9, align 8, !tbaa !20
  %90 = load ptr, ptr %10, align 8, !tbaa !20
  %91 = call ptr @_locale_bind_textdomain_codeset_impl(ptr noundef %88, ptr noundef %89, ptr noundef %90)
  store ptr %91, ptr %8, align 8, !tbaa !4
  br label %92

92:                                               ; preds = %87, %79, %82, %48, %42, %31, %23
  %93 = load ptr, ptr %8, align 8, !tbaa !4
  store ptr %93, ptr %4, align 8
  store i32 1, ptr %13, align 4
  br label %94

94:                                               ; preds = %92, %79
  call void @llvm.lifetime.end.p0(i64 8, ptr %10) #9
  call void @llvm.lifetime.end.p0(i64 8, ptr %9) #9
  call void @llvm.lifetime.end.p0(i64 8, ptr %8) #9
  %95 = load ptr, ptr %4, align 8
  ret ptr %95
}