; Function Attrs: nounwind uwtable
define internal ptr @_locale_bind_textdomain_codeset(ptr readnone captures(none) %0, ptr noundef readonly captures(none) %1, i64 noundef %2) #0 {
  %4 = alloca i64, align 8
  %5 = alloca i64, align 8
  %or.cond = icmp eq i64 %2, 2
  br i1 %or.cond, label %8, label %6

6:                                                ; preds = %3
  %7 = tail call i32 @_PyArg_CheckPositional(ptr noundef nonnull @.str.11, i64 noundef %2, i64 noundef 2, i64 noundef 2) #8
  %.not = icmp eq i32 %7, 0
  br i1 %.not, label %_locale_bind_textdomain_codeset_impl.exit, label %8

8:                                                ; preds = %3, %6
  %9 = load ptr, ptr %1, align 8, !tbaa !10
  %10 = getelementptr i8, ptr %9, i64 8
  %.val = load ptr, ptr %10, align 8, !tbaa !12
  %11 = getelementptr i8, ptr %.val, i64 168
  %.val32 = load i64, ptr %11, align 8, !tbaa !15
  %12 = and i64 %.val32, 268435456
  %.not26 = icmp eq i64 %12, 0
  br i1 %.not26, label %13, label %14

13:                                               ; preds = %8
  tail call void @_PyArg_BadArgument(ptr noundef nonnull @.str.11, ptr noundef nonnull @.str.38, ptr noundef nonnull @.str.39, ptr noundef nonnull %9) #8
  br label %_locale_bind_textdomain_codeset_impl.exit

14:                                               ; preds = %8
  %15 = call ptr @PyUnicode_AsUTF8AndSize(ptr noundef nonnull %9, ptr noundef nonnull %4) #8
  %16 = icmp eq ptr %15, null
  br i1 %16, label %_locale_bind_textdomain_codeset_impl.exit, label %17

17:                                               ; preds = %14
  %18 = call i64 @strlen(ptr noundef nonnull dereferenceable(1) %15) #9
  %19 = load i64, ptr %4, align 8, !tbaa !25
  %.not27 = icmp eq i64 %18, %19
  br i1 %.not27, label %22, label %20

20:                                               ; preds = %17
  %21 = load ptr, ptr @PyExc_ValueError, align 8, !tbaa !10
  call void @PyErr_SetString(ptr noundef %21, ptr noundef nonnull @.str.14) #8
  br label %_locale_bind_textdomain_codeset_impl.exit

22:                                               ; preds = %17
  %23 = getelementptr i8, ptr %1, i64 8
  %24 = load ptr, ptr %23, align 8, !tbaa !10
  %25 = icmp eq ptr %24, @_Py_NoneStruct
  br i1 %25, label %40, label %26

26:                                               ; preds = %22
  %27 = getelementptr i8, ptr %24, i64 8
  %.val31 = load ptr, ptr %27, align 8, !tbaa !12
  %28 = getelementptr i8, ptr %.val31, i64 168
  %.val33 = load i64, ptr %28, align 8, !tbaa !15
  %29 = and i64 %.val33, 268435456
  %.not28 = icmp eq i64 %29, 0
  br i1 %.not28, label %39, label %30

30:                                               ; preds = %26
  call void @llvm.lifetime.start.p0(i64 8, ptr nonnull %5) #8
  %31 = call ptr @PyUnicode_AsUTF8AndSize(ptr noundef %24, ptr noundef nonnull %5) #8
  %32 = icmp eq ptr %31, null
  br i1 %32, label %.thread, label %33

33:                                               ; preds = %30
  %34 = call i64 @strlen(ptr noundef nonnull dereferenceable(1) %31) #9
  %35 = load i64, ptr %5, align 8, !tbaa !25
  %.not29 = icmp eq i64 %34, %35
  br i1 %.not29, label %38, label %36

36:                                               ; preds = %33
  %37 = load ptr, ptr @PyExc_ValueError, align 8, !tbaa !10
  call void @PyErr_SetString(ptr noundef %37, ptr noundef nonnull @.str.14) #8
  br label %.thread

.thread:                                          ; preds = %36, %30
  call void @llvm.lifetime.end.p0(i64 8, ptr nonnull %5) #8
  br label %_locale_bind_textdomain_codeset_impl.exit

38:                                               ; preds = %33
  call void @llvm.lifetime.end.p0(i64 8, ptr nonnull %5) #8
  br label %40

39:                                               ; preds = %26
  call void @_PyArg_BadArgument(ptr noundef nonnull @.str.11, ptr noundef nonnull @.str.15, ptr noundef nonnull @.str.16, ptr noundef %24) #8
  br label %_locale_bind_textdomain_codeset_impl.exit

40:                                               ; preds = %38, %22
  %.020 = phi ptr [ %31, %38 ], [ null, %22 ]
  %41 = call ptr @bind_textdomain_codeset(ptr noundef nonnull %15, ptr noundef %.020) #8
  %.not.i = icmp eq ptr %41, null
  br i1 %.not.i, label %_locale_bind_textdomain_codeset_impl.exit, label %42

42:                                               ; preds = %40
  %43 = call ptr @PyUnicode_DecodeLocale(ptr noundef nonnull %41, ptr noundef null) #8
  br label %_locale_bind_textdomain_codeset_impl.exit

_locale_bind_textdomain_codeset_impl.exit:        ; preds = %42, %40, %.thread, %13, %20, %39, %6, %14
  %.022 = phi ptr [ null, %14 ], [ null, %20 ], [ null, %39 ], [ null, %13 ], [ null, %6 ], [ null, %.thread ], [ %43, %42 ], [ @_Py_NoneStruct, %40 ]
  ret ptr %.022
}